target datalayout = "e-m:e-p270:32:32-p271:32:32-p272:64:64-i64:64-i128:128-f80:128-n8:16:32:64-S128"
target triple = "x86_64-pc-linux-gnu"

; Function Attrs: nounwind uwtable
define internal ptr @dsa_newdata(ptr noundef %0) #0 {
  %2 = alloca ptr, align 8
  %3 = alloca ptr, align 8
  store ptr %0, ptr %3, align 8, !tbaa !3
  %4 = call i32 @ossl_prov_is_running()
  %5 = icmp ne i32 %4, 0
  br i1 %5, label %7, label %6

6:                                                ; preds = %1
  store ptr null, ptr %2, align 8
  br label %11

7:                                                ; preds = %1
  %8 = load ptr, ptr %3, align 8, !tbaa !3
  %9 = call ptr @ossl_prov_ctx_get0_libctx(ptr noundef %8)
  %10 = call ptr @ossl_dsa_new(ptr noundef %9)
  store ptr %10, ptr %2, align 8
  br label %11

11:                                               ; preds = %7, %6
  %12 = load ptr, ptr %2, align 8
  ret ptr %12
}