; Function Attrs: nounwind uwtable
define internal ptr @dsa_newdata(ptr noundef %0) #0 {
  %2 = tail call i32 @ossl_prov_is_running() #7
  %.not = icmp eq i32 %2, 0
  br i1 %.not, label %6, label %3

3:                                                ; preds = %1
  %4 = tail call ptr @ossl_prov_ctx_get0_libctx(ptr noundef %0) #7
  %5 = tail call ptr @ossl_dsa_new(ptr noundef %4) #7
  br label %6

6:                                                ; preds = %1, %3
  %.0 = phi ptr [ %5, %3 ], [ null, %1 ]
  ret ptr %.0
}